; Function Attrs: alwaysinline norecurse nounwind ssp uwtable
define internal void @"_ZN6open3d4core15ParallelForCPU_IZZZNS_1t8geometry6kernel10pointcloud39EstimateColorGradientsUsingKNNSearchCPUERKNS0_6TensorES8_S8_RS6_RKlENK3$_0clEvENKUlvE0_clEvEUllE_EEvRKNS0_6DeviceElRKT_.omp_outlined"(ptr noalias noundef readonly captures(none) %0, ptr noalias readnone captures(none) %1, ptr noundef nonnull readonly align 8 captures(none) dereferenceable(8) %2, ptr noundef nonnull readonly align 8 captures(none) dereferenceable(56) %3) #25 personality ptr @__gxx_personality_v0 {
  %5 = alloca i32, align 4
  %6 = alloca i32, align 4
  %7 = alloca i64, align 8
  %8 = alloca i64, align 8
  %9 = alloca i64, align 8
  %10 = alloca i32, align 4
  %11 = load i64, ptr %2, align 8, !tbaa !8
  %12 = icmp sgt i64 %11, 0
  br i1 %12, label %13, label %42

13:                                               ; preds = %4
  %14 = add nsw i64 %11, -1
  call void @llvm.lifetime.start.p0(i64 8, ptr nonnull %7) #26
  store i64 0, ptr %7, align 8, !tbaa !8
  call void @llvm.lifetime.start.p0(i64 8, ptr nonnull %8) #26
  store i64 %14, ptr %8, align 8, !tbaa !8
  call void @llvm.lifetime.start.p0(i64 8, ptr nonnull %9) #26
  store i64 1, ptr %9, align 8, !tbaa !8
  call void @llvm.lifetime.start.p0(i64 4, ptr nonnull %10) #26
  store i32 0, ptr %10, align 4, !tbaa !34
  %15 = load i32, ptr %0, align 4, !tbaa !34
  call void @__kmpc_for_static_init_8(ptr nonnull @1, i32 %15, i32 34, ptr nonnull %10, ptr nonnull %7, ptr nonnull %8, ptr nonnull %9, i64 1, i64 1)
  %16 = load i64, ptr %8, align 8, !tbaa !8
  %17 = call i64 @llvm.smin.i64(i64 %16, i64 %14)
  store i64 %17, ptr %8, align 8, !tbaa !8
  %18 = load i64, ptr %7, align 8, !tbaa !8
  %.not13 = icmp sgt i64 %18, %17
  br i1 %.not13, label %._crit_edge, label %.lr.ph

.lr.ph:                                           ; preds = %13
  %19 = getelementptr inbounds nuw i8, ptr %3, i64 8
  %20 = getelementptr inbounds nuw i8, ptr %3, i64 16
  %21 = getelementptr inbounds nuw i8, ptr %3, i64 24
  %22 = getelementptr inbounds nuw i8, ptr %3, i64 32
  %23 = getelementptr inbounds nuw i8, ptr %3, i64 40
  %24 = getelementptr inbounds nuw i8, ptr %3, i64 48
  br label %25

25:                                               ; preds = %.lr.ph, %39
  %.014 = phi i64 [ %18, %.lr.ph ], [ %40, %39 ]
  %26 = load i64, ptr %3, align 8, !tbaa !1133
  call void @llvm.lifetime.start.p0(i64 4, ptr nonnull %5) #26
  %27 = trunc i64 %.014 to i32
  %28 = mul i32 %27, 3
  store i32 %28, ptr %5, align 4, !tbaa !34
  %29 = load ptr, ptr %19, align 8, !tbaa !1135
  %30 = load ptr, ptr %20, align 8, !tbaa !1136
  %31 = load ptr, ptr %21, align 8, !tbaa !1137
  %32 = load ptr, ptr %22, align 8, !tbaa !1138
  %33 = shl i64 %.014, 32
  %sext.i = mul i64 %33, %26
  %34 = ashr exact i64 %sext.i, 30
  %35 = getelementptr inbounds i8, ptr %32, i64 %34
  call void @llvm.lifetime.start.p0(i64 4, ptr nonnull %6) #26
  %36 = load i64, ptr %23, align 8, !tbaa !1139
  %37 = trunc i64 %36 to i32
  store i32 %37, ptr %6, align 4, !tbaa !34
  %38 = load ptr, ptr %24, align 8, !tbaa !1140
  invoke void @_ZN6open3d1t8geometry6kernel10pointcloud36EstimatePointWiseColorGradientKernelIdEEvPKT_S7_S7_RKiPS8_S9_PS5_(ptr noundef %29, ptr noundef %30, ptr noundef %31, ptr noundef nonnull align 4 dereferenceable(4) %5, ptr noundef %35, ptr noundef nonnull align 4 dereferenceable(4) %6, ptr noundef %38)
          to label %39 unwind label %43

39:                                               ; preds = %25
  call void @llvm.lifetime.end.p0(i64 4, ptr nonnull %6) #26
  call void @llvm.lifetime.end.p0(i64 4, ptr nonnull %5) #26
  %40 = add nsw i64 %.014, 1
  %41 = load i64, ptr %8, align 8, !tbaa !8
  %.not.not = icmp slt i64 %.014, %41
  br i1 %.not.not, label %25, label %._crit_edge

._crit_edge:                                      ; preds = %39, %13
  call void @__kmpc_for_static_fini(ptr nonnull @1, i32 %15)
  call void @llvm.lifetime.end.p0(i64 4, ptr nonnull %10) #26
  call void @llvm.lifetime.end.p0(i64 8, ptr nonnull %9) #26
  call void @llvm.lifetime.end.p0(i64 8, ptr nonnull %8) #26
  call void @llvm.lifetime.end.p0(i64 8, ptr nonnull %7) #26
  br label %42

42:                                               ; preds = %._crit_edge, %4
  ret void

43:                                               ; preds = %25
  %44 = landingpad { ptr, i32 }
          catch ptr null
  %45 = extractvalue { ptr, i32 } %44, 0
  call void @__clang_call_terminate(ptr %45) #36
  unreachable
}